target datalayout = "e-m:e-p270:32:32-p271:32:32-p272:64:64-i64:64-i128:128-f80:128-n8:16:32:64-S128"
target triple = "x86_64-pc-linux-gnu"

%"struct.boost::asio::execution::detail::any_executor_base::object_fns" = type { ptr, ptr, ptr, ptr }
%"class.boost::system::error_code" = type { i32, i8, ptr }
%"class.boost::asio::execution::any_executor" = type { %"class.boost::asio::execution::detail::any_executor_base", ptr }
%"class.boost::asio::execution::detail::any_executor_base" = type { %"union.std::aligned_storage<16, 8>::type", ptr, ptr, ptr }
%"union.std::aligned_storage<16, 8>::type" = type { [16 x i8] }
%"class.std::__shared_count" = type { ptr }
%"class.boost::asio::ip::basic_resolver_iterator" = type { %"class.std::shared_ptr.13", i64 }
%"class.std::shared_ptr.13" = type { %"class.std::__shared_ptr.14" }
%"class.std::__shared_ptr.14" = type { ptr, %"class.std::__shared_count" }
%class.anon.16 = type { ptr }
%"class.boost::asio::detail::iterator_connect_op" = type { ptr, %"class.boost::asio::ip::basic_resolver_iterator", %"class.boost::asio::ip::basic_resolver_iterator", i32, %class.anon.16 }
%"class.boost::asio::detail::binder1" = type { %"class.boost::asio::detail::iterator_connect_op", %"class.boost::system::error_code" }
%"class.boost::asio::detail::work_dispatcher" = type { %"class.boost::asio::detail::binder1", %"class.boost::asio::execution::any_executor" }
%"class.std::_Sp_counted_base" = type { ptr, i32, i32 }

@__libc_single_threaded = external global i8, align 1

; Function Attrs: alwaysinline mustprogress nounwind uwtable
define linkonce_odr dso_local noundef i32 @_ZN9__gnu_cxx18__exchange_and_addEPVii(ptr noundef %0, i32 noundef %1) #12 comdat {
  %3 = alloca ptr, align 8
  %4 = alloca i32, align 4
  %5 = alloca i32, align 4
  %6 = alloca i32, align 4
  store ptr %0, ptr %3, align 8, !tbaa !826
  store i32 %1, ptr %4, align 4, !tbaa !9
  %7 = load ptr, ptr %3, align 8, !tbaa !826
  %8 = load i32, ptr %4, align 4, !tbaa !9
  store i32 %8, ptr %5, align 4, !tbaa !9
  %9 = load i32, ptr %5, align 4
  %10 = atomicrmw volatile add ptr %7, i32 %9 acq_rel, align 4
  store i32 %10, ptr %6, align 4
  %11 = load i32, ptr %6, align 4, !tbaa !9
  ret i32 %11
}

; Function Attrs: alwaysinline mustprogress nounwind uwtable
define linkonce_odr dso_local noundef i32 @_ZN9__gnu_cxx25__exchange_and_add_singleEPii(ptr noundef %0, i32 noundef %1) #12 comdat {
  %3 = alloca ptr, align 8
  %4 = alloca i32, align 4
  %5 = alloca i32, align 4
  store ptr %0, ptr %3, align 8, !tbaa !826
  store i32 %1, ptr %4, align 4, !tbaa !9
  call void @llvm.lifetime.start.p0(i64 4, ptr %5) #3
  %6 = load ptr, ptr %3, align 8, !tbaa !826
  %7 = load i32, ptr %6, align 4, !tbaa !9
  store i32 %7, ptr %5, align 4, !tbaa !9
  %8 = load i32, ptr %4, align 4, !tbaa !9
  %9 = load ptr, ptr %3, align 8, !tbaa !826
  %10 = load i32, ptr %9, align 4, !tbaa !9
  %11 = add nsw i32 %10, %8
  store i32 %11, ptr %9, align 4, !tbaa !9
  %12 = load i32, ptr %5, align 4, !tbaa !9
  call void @llvm.lifetime.end.p0(i64 4, ptr %5) #3
  ret i32 %12
}

; Function Attrs: alwaysinline mustprogress nounwind uwtable
define linkonce_odr dso_local noundef zeroext i1 @_ZN9__gnu_cxx20__is_single_threadedEv() #12 comdat {
  %1 = load i8, ptr @__libc_single_threaded, align 1, !tbaa !111
  %2 = icmp ne i8 %1, 0
  ret i1 %2
}

; Function Attrs: alwaysinline mustprogress uwtable
define linkonce_odr dso_local noundef i32 @_ZN9__gnu_cxx27__exchange_and_add_dispatchEPii(ptr noundef %0, i32 noundef %1) #13 comdat {
  %3 = alloca i32, align 4
  %4 = alloca ptr, align 8
  %5 = alloca i32, align 4
  store ptr %0, ptr %4, align 8, !tbaa !826
  store i32 %1, ptr %5, align 4, !tbaa !9
  %6 = call noundef zeroext i1 @_ZN9__gnu_cxx20__is_single_threadedEv() #3
  br i1 %6, label %7, label %11

7:                                                ; preds = %2
  %8 = load ptr, ptr %4, align 8, !tbaa !826
  %9 = load i32, ptr %5, align 4, !tbaa !9
  %10 = call noundef i32 @_ZN9__gnu_cxx25__exchange_and_add_singleEPii(ptr noundef %8, i32 noundef %9)
  store i32 %10, ptr %3, align 4
  br label %15

11:                                               ; preds = %2
  %12 = load ptr, ptr %4, align 8, !tbaa !826
  %13 = load i32, ptr %5, align 4, !tbaa !9
  %14 = call noundef i32 @_ZN9__gnu_cxx18__exchange_and_addEPVii(ptr noundef %12, i32 noundef %13)
  store i32 %14, ptr %3, align 4
  br label %15

15:                                               ; preds = %11, %7
  %16 = load i32, ptr %3, align 4
  ret i32 %16
}

; Function Attrs: inlinehint mustprogress nounwind uwtable
define linkonce_odr dso_local void @_ZNSt16_Sp_counted_baseILN9__gnu_cxx12_Lock_policyE2EE10_M_releaseEv(ptr noundef nonnull align 8 dereferenceable(16) %0) #4 comdat align 2 personality ptr @__gxx_personality_v0 {
  %2 = alloca ptr, align 8
  %3 = alloca i8, align 1
  %4 = alloca i8, align 1
  %5 = alloca i8, align 1
  %6 = alloca i32, align 4
  %7 = alloca i32, align 4
  %8 = alloca i64, align 8
  %9 = alloca ptr, align 8
  %10 = alloca i64, align 8
  %11 = alloca i32, align 4
  store ptr %0, ptr %2, align 8, !tbaa !819
  %12 = load ptr, ptr %2, align 8
  call void @llvm.lifetime.start.p0(i64 1, ptr %3) #3
  store i8 1, ptr %3, align 1, !tbaa !60
  call void @llvm.lifetime.start.p0(i64 1, ptr %4) #3
  store i8 1, ptr %4, align 1, !tbaa !60
  call void @llvm.lifetime.start.p0(i64 1, ptr %5) #3
  store i8 1, ptr %5, align 1, !tbaa !60
  call void @llvm.lifetime.start.p0(i64 4, ptr %6) #3
  store i32 32, ptr %6, align 4, !tbaa !9
  call void @llvm.lifetime.start.p0(i64 4, ptr %7) #3
  store i32 32, ptr %7, align 4, !tbaa !9
  call void @llvm.lifetime.start.p0(i64 8, ptr %8) #3
  store i64 4294967297, ptr %8, align 8, !tbaa !820
  call void @llvm.lifetime.start.p0(i64 8, ptr %9) #3
  %13 = getelementptr inbounds nuw %"class.std::_Sp_counted_base", ptr %12, i32 0, i32 1
  store ptr %13, ptr %9, align 8, !tbaa !821
  %14 = load ptr, ptr %9, align 8, !tbaa !821
  %15 = load atomic i64, ptr %14 acquire, align 8
  store i64 %15, ptr %10, align 8
  %16 = load i64, ptr %10, align 8, !tbaa !820
  %17 = icmp eq i64 %16, 4294967297
  br i1 %17, label %18, label %27

18:                                               ; preds = %1
  %19 = getelementptr inbounds nuw %"class.std::_Sp_counted_base", ptr %12, i32 0, i32 1
  store i32 0, ptr %19, align 8, !tbaa !823
  %20 = getelementptr inbounds nuw %"class.std::_Sp_counted_base", ptr %12, i32 0, i32 2
  store i32 0, ptr %20, align 4, !tbaa !825
  %21 = load ptr, ptr %12, align 8, !tbaa !32
  %22 = getelementptr inbounds ptr, ptr %21, i64 2
  %23 = load ptr, ptr %22, align 8
  call void %23(ptr noundef nonnull align 8 dereferenceable(16) %12) #3
  %24 = load ptr, ptr %12, align 8, !tbaa !32
  %25 = getelementptr inbounds ptr, ptr %24, i64 3
  %26 = load ptr, ptr %25, align 8
  call void %26(ptr noundef nonnull align 8 dereferenceable(16) %12) #3
  store i32 1, ptr %11, align 4
  br label %35

27:                                               ; preds = %1
  %28 = getelementptr inbounds nuw %"class.std::_Sp_counted_base", ptr %12, i32 0, i32 1
  %29 = invoke noundef i32 @_ZN9__gnu_cxx27__exchange_and_add_dispatchEPii(ptr noundef %28, i32 noundef -1)
          to label %30 unwind label %41

30:                                               ; preds = %27
  %31 = icmp eq i32 %29, 1
  %32 = call i1 @llvm.expect.i1(i1 %31, i1 false)
  br i1 %32, label %33, label %34

33:                                               ; preds = %30
  call void @_ZNSt16_Sp_counted_baseILN9__gnu_cxx12_Lock_policyE2EE24_M_release_last_use_coldEv(ptr noundef nonnull align 8 dereferenceable(16) %12) #3
  store i32 1, ptr %11, align 4
  br label %35

34:                                               ; preds = %30
  store i32 0, ptr %11, align 4
  br label %35

35:                                               ; preds = %34, %33, %18
  call void @llvm.lifetime.end.p0(i64 8, ptr %9) #3
  call void @llvm.lifetime.end.p0(i64 8, ptr %8) #3
  call void @llvm.lifetime.end.p0(i64 4, ptr %7) #3
  call void @llvm.lifetime.end.p0(i64 4, ptr %6) #3
  %36 = load i32, ptr %11, align 4
  switch i32 %36, label %38 [
    i32 0, label %37
  ]

37:                                               ; preds = %35
  store i32 0, ptr %11, align 4
  br label %38

38:                                               ; preds = %37, %35
  call void @llvm.lifetime.end.p0(i64 1, ptr %5) #3
  call void @llvm.lifetime.end.p0(i64 1, ptr %4) #3
  call void @llvm.lifetime.end.p0(i64 1, ptr %3) #3
  %39 = load i32, ptr %11, align 4
  switch i32 %39, label %44 [
    i32 0, label %40
    i32 1, label %40
  ]

40:                                               ; preds = %38, %38
  ret void

41:                                               ; preds = %27
  %42 = landingpad { ptr, i32 }
          catch ptr null
  %43 = extractvalue { ptr, i32 } %42, 0
  call void @__clang_call_terminate(ptr %43) #27
  unreachable

44:                                               ; preds = %38
  unreachable
}

; Function Attrs: mustprogress nounwind uwtable
define linkonce_odr dso_local void @_ZNSt14__shared_countILN9__gnu_cxx12_Lock_policyE2EED2Ev(ptr noundef nonnull align 8 dereferenceable(8) %0) unnamed_addr #5 comdat align 2 {
  %2 = alloca ptr, align 8
  store ptr %0, ptr %2, align 8, !tbaa !814
  %3 = load ptr, ptr %2, align 8
  %4 = getelementptr inbounds nuw %"class.std::__shared_count", ptr %3, i32 0, i32 0
  %5 = load ptr, ptr %4, align 8, !tbaa !816
  %6 = icmp ne ptr %5, null
  br i1 %6, label %7, label %10

7:                                                ; preds = %1
  %8 = getelementptr inbounds nuw %"class.std::__shared_count", ptr %3, i32 0, i32 0
  %9 = load ptr, ptr %8, align 8, !tbaa !816
  call void @_ZNSt16_Sp_counted_baseILN9__gnu_cxx12_Lock_policyE2EE10_M_releaseEv(ptr noundef nonnull align 8 dereferenceable(16) %9) #3
  br label %10

10:                                               ; preds = %7, %1
  ret void
}

; Function Attrs: mustprogress nounwind uwtable
define linkonce_odr dso_local void @_ZNSt12__shared_ptrISt6vectorIN5boost4asio2ip20basic_resolver_entryINS3_3tcpEEESaIS6_EELN9__gnu_cxx12_Lock_policyE2EED2Ev(ptr noundef nonnull align 8 dereferenceable(16) %0) unnamed_addr #5 comdat align 2 {
  %2 = alloca ptr, align 8
  store ptr %0, ptr %2, align 8, !tbaa !590
  %3 = load ptr, ptr %2, align 8
  %4 = getelementptr inbounds nuw %"class.std::__shared_ptr.14", ptr %3, i32 0, i32 1
  call void @_ZNSt14__shared_countILN9__gnu_cxx12_Lock_policyE2EED2Ev(ptr noundef nonnull align 8 dereferenceable(8) %4) #3
  ret void
}

; Function Attrs: inlinehint mustprogress nounwind uwtable
define linkonce_odr dso_local void @_ZN5boost4asio2ip23basic_resolver_iteratorINS1_3tcpEED2Ev(ptr noundef nonnull align 8 dereferenceable(24) %0) unnamed_addr #4 comdat align 2 {
  %2 = alloca ptr, align 8
  store ptr %0, ptr %2, align 8, !tbaa !99
  %3 = load ptr, ptr %2, align 8
  %4 = getelementptr inbounds nuw %"class.boost::asio::ip::basic_resolver_iterator", ptr %3, i32 0, i32 0
  call void @_ZNSt12__shared_ptrISt6vectorIN5boost4asio2ip20basic_resolver_entryINS3_3tcpEEESaIS6_EELN9__gnu_cxx12_Lock_policyE2EED2Ev(ptr noundef nonnull align 8 dereferenceable(16) %4) #3
  ret void
}

; Function Attrs: inlinehint mustprogress nounwind uwtable
define internal void @"_ZN5boost4asio6detail19iterator_connect_opINS0_2ip3tcpENS0_9execution12any_executorIJNS5_12context_as_tIRNS0_17execution_contextEEENS5_6detail8blocking7never_tILi0EEENS5_11prefer_onlyINSC_10possibly_tILi0EEEEENSF_INSB_16outstanding_work9tracked_tILi0EEEEENSF_INSJ_11untracked_tILi0EEEEENSF_INSB_12relationship6fork_tILi0EEEEENSF_INSQ_14continuation_tILi0EEEEEEEENS3_23basic_resolver_iteratorIS4_EENS1_25default_connect_conditionEZ4mainE3$_1ED2Ev"(ptr noundef nonnull align 8 dereferenceable(72) %0) unnamed_addr #4 align 2 {
  %2 = alloca ptr, align 8
  store ptr %0, ptr %2, align 8, !tbaa !559
  %3 = load ptr, ptr %2, align 8
  %4 = getelementptr inbounds nuw %"class.boost::asio::detail::iterator_connect_op", ptr %3, i32 0, i32 2
  call void @_ZN5boost4asio2ip23basic_resolver_iteratorINS1_3tcpEED2Ev(ptr noundef nonnull align 8 dereferenceable(24) %4) #3
  %5 = getelementptr inbounds nuw %"class.boost::asio::detail::iterator_connect_op", ptr %3, i32 0, i32 1
  call void @_ZN5boost4asio2ip23basic_resolver_iteratorINS1_3tcpEED2Ev(ptr noundef nonnull align 8 dereferenceable(24) %5) #3
  ret void
}

; Function Attrs: inlinehint mustprogress nounwind uwtable
define internal void @"_ZN5boost4asio6detail7binder1INS1_19iterator_connect_opINS0_2ip3tcpENS0_9execution12any_executorIJNS6_12context_as_tIRNS0_17execution_contextEEENS6_6detail8blocking7never_tILi0EEENS6_11prefer_onlyINSD_10possibly_tILi0EEEEENSG_INSC_16outstanding_work9tracked_tILi0EEEEENSG_INSK_11untracked_tILi0EEEEENSG_INSC_12relationship6fork_tILi0EEEEENSG_INSR_14continuation_tILi0EEEEEEEENS4_23basic_resolver_iteratorIS5_EENS1_25default_connect_conditionEZ4mainE3$_1EENS_6system10error_codeEED2Ev"(ptr noundef nonnull align 8 dereferenceable(88) %0) unnamed_addr #4 align 2 {
  %2 = alloca ptr, align 8
  store ptr %0, ptr %2, align 8, !tbaa !575
  %3 = load ptr, ptr %2, align 8
  %4 = getelementptr inbounds nuw %"class.boost::asio::detail::binder1", ptr %3, i32 0, i32 0
  call void @"_ZN5boost4asio6detail19iterator_connect_opINS0_2ip3tcpENS0_9execution12any_executorIJNS5_12context_as_tIRNS0_17execution_contextEEENS5_6detail8blocking7never_tILi0EEENS5_11prefer_onlyINSC_10possibly_tILi0EEEEENSF_INSB_16outstanding_work9tracked_tILi0EEEEENSF_INSJ_11untracked_tILi0EEEEENSF_INSB_12relationship6fork_tILi0EEEEENSF_INSQ_14continuation_tILi0EEEEEEEENS3_23basic_resolver_iteratorIS4_EENS1_25default_connect_conditionEZ4mainE3$_1ED2Ev"(ptr noundef nonnull align 8 dereferenceable(72) %4) #3
  ret void
}

; Function Attrs: mustprogress nounwind uwtable
define linkonce_odr dso_local void @_ZN5boost4asio9execution6detail17any_executor_baseD2Ev(ptr noundef nonnull align 8 dereferenceable(40) %0) unnamed_addr #5 comdat align 2 personality ptr @__gxx_personality_v0 {
  %2 = alloca ptr, align 8
  store ptr %0, ptr %2, align 8, !tbaa !577
  %3 = load ptr, ptr %2, align 8
  %4 = getelementptr inbounds nuw %"class.boost::asio::execution::detail::any_executor_base", ptr %3, i32 0, i32 1
  %5 = load ptr, ptr %4, align 8, !tbaa !579
  %6 = getelementptr inbounds nuw %"struct.boost::asio::execution::detail::any_executor_base::object_fns", ptr %5, i32 0, i32 0
  %7 = load ptr, ptr %6, align 8, !tbaa !583
  invoke void %7(ptr noundef nonnull align 8 dereferenceable(40) %3)
          to label %8 unwind label %9

8:                                                ; preds = %1
  ret void

9:                                                ; preds = %1
  %10 = landingpad { ptr, i32 }
          catch ptr null
  %11 = extractvalue { ptr, i32 } %10, 0
  call void @__clang_call_terminate(ptr %11) #27
  unreachable
}

; Function Attrs: inlinehint mustprogress nounwind uwtable
define internal void @"_ZN5boost4asio6detail15work_dispatcherINS1_7binder1INS1_19iterator_connect_opINS0_2ip3tcpENS0_9execution12any_executorIJNS7_12context_as_tIRNS0_17execution_contextEEENS7_6detail8blocking7never_tILi0EEENS7_11prefer_onlyINSE_10possibly_tILi0EEEEENSH_INSD_16outstanding_work9tracked_tILi0EEEEENSH_INSL_11untracked_tILi0EEEEENSH_INSD_12relationship6fork_tILi0EEEEENSH_INSS_14continuation_tILi0EEEEEEEENS5_23basic_resolver_iteratorIS6_EENS1_25default_connect_conditionEZ4mainE3$_1EENS_6system10error_codeEEESZ_vED2Ev"(ptr noundef nonnull align 8 dereferenceable(136) %0) unnamed_addr #4 align 2 {
  %2 = alloca ptr, align 8
  store ptr %0, ptr %2, align 8, !tbaa !785
  %3 = load ptr, ptr %2, align 8
  %4 = getelementptr inbounds nuw %"class.boost::asio::detail::work_dispatcher", ptr %3, i32 0, i32 1
  call void @_ZN5boost4asio9execution6detail17any_executor_baseD2Ev(ptr noundef nonnull align 8 dereferenceable(48) %4) #3
  %5 = getelementptr inbounds nuw %"class.boost::asio::detail::work_dispatcher", ptr %3, i32 0, i32 0
  call void @"_ZN5boost4asio6detail7binder1INS1_19iterator_connect_opINS0_2ip3tcpENS0_9execution12any_executorIJNS6_12context_as_tIRNS0_17execution_contextEEENS6_6detail8blocking7never_tILi0EEENS6_11prefer_onlyINSD_10possibly_tILi0EEEEENSG_INSC_16outstanding_work9tracked_tILi0EEEEENSG_INSK_11untracked_tILi0EEEEENSG_INSC_12relationship6fork_tILi0EEEEENSG_INSR_14continuation_tILi0EEEEEEEENS4_23basic_resolver_iteratorIS5_EENS1_25default_connect_conditionEZ4mainE3$_1EENS_6system10error_codeEED2Ev"(ptr noundef nonnull align 8 dereferenceable(88) %5) #3
  ret void
}